target datalayout = "e-m:e-p270:32:32-p271:32:32-p272:64:64-i64:64-i128:128-f80:128-n8:16:32:64-S128"
target triple = "x86_64-pc-linux-gnu"

%struct._cmstransform_struct = type { i32, i32, ptr, ptr, ptr, ptr, ptr, %struct._cmsCACHE, ptr, ptr, ptr, ptr, i32, i32, %struct.cmsCIEXYZ, %struct.cmsCIEXYZ, ptr, i32, double, i32, ptr, ptr, ptr, ptr, ptr, i32, i32 }
%struct._cmsCACHE = type { [16 x i16], [16 x i16] }
%struct.cmsCIEXYZ = type { double, double, double }

; Function Attrs: nounwind uwtable
define internal i32 @PixelSize(i32 noundef %0) #0 {
  %2 = alloca i32, align 4
  %3 = alloca i32, align 4
  %4 = alloca i32, align 4
  store i32 %0, ptr %3, align 4
  %5 = load i32, ptr %3, align 4
  %6 = and i32 %5, 7
  store i32 %6, ptr %4, align 4
  %7 = load i32, ptr %4, align 4
  %8 = icmp eq i32 %7, 0
  br i1 %8, label %9, label %10

9:                                                ; preds = %1
  store i32 8, ptr %2, align 4
  br label %12

10:                                               ; preds = %1
  %11 = load i32, ptr %4, align 4
  store i32 %11, ptr %2, align 4
  br label %12

12:                                               ; preds = %10, %9
  %13 = load i32, ptr %2, align 4
  ret i32 %13
}

; Function Attrs: nounwind uwtable
define internal ptr @Unroll16ToFloat(ptr noundef %0, ptr noundef %1, ptr noundef %2, i32 noundef %3) #0 {
  %5 = alloca ptr, align 8
  %6 = alloca ptr, align 8
  %7 = alloca ptr, align 8
  %8 = alloca ptr, align 8
  %9 = alloca i32, align 4
  %10 = alloca i32, align 4
  %11 = alloca i32, align 4
  %12 = alloca i32, align 4
  %13 = alloca i32, align 4
  %14 = alloca i32, align 4
  %15 = alloca i32, align 4
  %16 = alloca i32, align 4
  %17 = alloca float, align 4
  %18 = alloca i32, align 4
  %19 = alloca i32, align 4
  %20 = alloca i32, align 4
  %21 = alloca float, align 4
  store ptr %0, ptr %6, align 8
  store ptr %1, ptr %7, align 8
  store ptr %2, ptr %8, align 8
  store i32 %3, ptr %9, align 4
  %22 = load ptr, ptr %6, align 8
  %23 = getelementptr inbounds %struct._cmstransform_struct, ptr %22, i32 0, i32 0
  %24 = load i32, ptr %23, align 8
  %25 = lshr i32 %24, 3
  %26 = and i32 %25, 15
  store i32 %26, ptr %10, align 4
  %27 = load ptr, ptr %6, align 8
  %28 = getelementptr inbounds %struct._cmstransform_struct, ptr %27, i32 0, i32 0
  %29 = load i32, ptr %28, align 8
  %30 = lshr i32 %29, 10
  %31 = and i32 %30, 1
  store i32 %31, ptr %11, align 4
  %32 = load ptr, ptr %6, align 8
  %33 = getelementptr inbounds %struct._cmstransform_struct, ptr %32, i32 0, i32 0
  %34 = load i32, ptr %33, align 8
  %35 = lshr i32 %34, 13
  %36 = and i32 %35, 1
  store i32 %36, ptr %12, align 4
  %37 = load ptr, ptr %6, align 8
  %38 = getelementptr inbounds %struct._cmstransform_struct, ptr %37, i32 0, i32 0
  %39 = load i32, ptr %38, align 8
  %40 = lshr i32 %39, 14
  %41 = and i32 %40, 1
  store i32 %41, ptr %13, align 4
  %42 = load ptr, ptr %6, align 8
  %43 = getelementptr inbounds %struct._cmstransform_struct, ptr %42, i32 0, i32 0
  %44 = load i32, ptr %43, align 8
  %45 = lshr i32 %44, 7
  %46 = and i32 %45, 7
  store i32 %46, ptr %14, align 4
  %47 = load i32, ptr %11, align 4
  %48 = load i32, ptr %13, align 4
  %49 = xor i32 %47, %48
  store i32 %49, ptr %15, align 4
  %50 = load ptr, ptr %6, align 8
  %51 = getelementptr inbounds %struct._cmstransform_struct, ptr %50, i32 0, i32 0
  %52 = load i32, ptr %51, align 8
  %53 = lshr i32 %52, 12
  %54 = and i32 %53, 1
  store i32 %54, ptr %16, align 4
  store i32 0, ptr %19, align 4
  %55 = load ptr, ptr %6, align 8
  %56 = getelementptr inbounds %struct._cmstransform_struct, ptr %55, i32 0, i32 0
  %57 = load i32, ptr %56, align 8
  %58 = call i32 @PixelSize(i32 noundef %57)
  %59 = load i32, ptr %9, align 4
  %60 = udiv i32 %59, %58
  store i32 %60, ptr %9, align 4
  %61 = load i32, ptr %15, align 4
  %62 = icmp ne i32 %61, 0
  br i1 %62, label %63, label %65

63:                                               ; preds = %4
  %64 = load i32, ptr %14, align 4
  store i32 %64, ptr %19, align 4
  br label %65

65:                                               ; preds = %63, %4
  store i32 0, ptr %18, align 4
  br label %66

66:                                               ; preds = %120, %65
  %67 = load i32, ptr %18, align 4
  %68 = load i32, ptr %10, align 4
  %69 = icmp ult i32 %67, %68
  br i1 %69, label %70, label %123

70:                                               ; preds = %66
  %71 = load i32, ptr %11, align 4
  %72 = icmp ne i32 %71, 0
  br i1 %72, label %73, label %78

73:                                               ; preds = %70
  %74 = load i32, ptr %10, align 4
  %75 = load i32, ptr %18, align 4
  %76 = sub i32 %74, %75
  %77 = sub i32 %76, 1
  br label %80

78:                                               ; preds = %70
  %79 = load i32, ptr %18, align 4
  br label %80

80:                                               ; preds = %78, %73
  %81 = phi i32 [ %77, %73 ], [ %79, %78 ]
  store i32 %81, ptr %20, align 4
  %82 = load i32, ptr %16, align 4
  %83 = icmp ne i32 %82, 0
  br i1 %83, label %84, label %95

84:                                               ; preds = %80
  %85 = load ptr, ptr %8, align 8
  %86 = load i32, ptr %18, align 4
  %87 = load i32, ptr %19, align 4
  %88 = add i32 %86, %87
  %89 = load i32, ptr %9, align 4
  %90 = mul i32 %88, %89
  %91 = zext i32 %90 to i64
  %92 = getelementptr inbounds i16, ptr %85, i64 %91
  %93 = load i16, ptr %92, align 2
  %94 = uitofp i16 %93 to float
  store float %94, ptr %17, align 4
  br label %104

95:                                               ; preds = %80
  %96 = load ptr, ptr %8, align 8
  %97 = load i32, ptr %18, align 4
  %98 = load i32, ptr %19, align 4
  %99 = add i32 %97, %98
  %100 = zext i32 %99 to i64
  %101 = getelementptr inbounds i16, ptr %96, i64 %100
  %102 = load i16, ptr %101, align 2
  %103 = uitofp i16 %102 to float
  store float %103, ptr %17, align 4
  br label %104

104:                                              ; preds = %95, %84
  %105 = load float, ptr %17, align 4
  %106 = fdiv float %105, 6.553500e+04
  store float %106, ptr %17, align 4
  %107 = load i32, ptr %12, align 4
  %108 = icmp ne i32 %107, 0
  br i1 %108, label %109, label %112

109:                                              ; preds = %104
  %110 = load float, ptr %17, align 4
  %111 = fsub float 1.000000e+00, %110
  br label %114

112:                                              ; preds = %104
  %113 = load float, ptr %17, align 4
  br label %114

114:                                              ; preds = %112, %109
  %115 = phi float [ %111, %109 ], [ %113, %112 ]
  %116 = load ptr, ptr %7, align 8
  %117 = load i32, ptr %20, align 4
  %118 = zext i32 %117 to i64
  %119 = getelementptr inbounds float, ptr %116, i64 %118
  store float %115, ptr %119, align 4
  br label %120

120:                                              ; preds = %114
  %121 = load i32, ptr %18, align 4
  %122 = add i32 %121, 1
  store i32 %122, ptr %18, align 4
  br label %66, !llvm.loop !24

123:                                              ; preds = %66
  %124 = load i32, ptr %14, align 4
  %125 = icmp eq i32 %124, 0
  br i1 %125, label %126, label %147

126:                                              ; preds = %123
  %127 = load i32, ptr %13, align 4
  %128 = icmp ne i32 %127, 0
  br i1 %128, label %129, label %147

129:                                              ; preds = %126
  %130 = load ptr, ptr %7, align 8
  %131 = getelementptr inbounds float, ptr %130, i64 0
  %132 = load float, ptr %131, align 4
  store float %132, ptr %21, align 4
  %133 = load ptr, ptr %7, align 8
  %134 = getelementptr inbounds float, ptr %133, i64 0
  %135 = load ptr, ptr %7, align 8
  %136 = getelementptr inbounds float, ptr %135, i64 1
  %137 = load i32, ptr %10, align 4
  %138 = sub i32 %137, 1
  %139 = zext i32 %138 to i64
  %140 = mul i64 %139, 4
  call void @llvm.memmove.p0.p0.i64(ptr align 4 %134, ptr align 4 %136, i64 %140, i1 false)
  %141 = load float, ptr %21, align 4
  %142 = load ptr, ptr %7, align 8
  %143 = load i32, ptr %10, align 4
  %144 = sub i32 %143, 1
  %145 = zext i32 %144 to i64
  %146 = getelementptr inbounds float, ptr %142, i64 %145
  store float %141, ptr %146, align 4
  br label %147

147:                                              ; preds = %129, %126, %123
  %148 = load ptr, ptr %6, align 8
  %149 = getelementptr inbounds %struct._cmstransform_struct, ptr %148, i32 0, i32 0
  %150 = load i32, ptr %149, align 8
  %151 = lshr i32 %150, 12
  %152 = and i32 %151, 1
  %153 = icmp ne i32 %152, 0
  br i1 %153, label %154, label %157

154:                                              ; preds = %147
  %155 = load ptr, ptr %8, align 8
  %156 = getelementptr inbounds i8, ptr %155, i64 2
  store ptr %156, ptr %5, align 8
  br label %165

157:                                              ; preds = %147
  %158 = load ptr, ptr %8, align 8
  %159 = load i32, ptr %10, align 4
  %160 = load i32, ptr %14, align 4
  %161 = add i32 %159, %160
  %162 = zext i32 %161 to i64
  %163 = mul i64 %162, 2
  %164 = getelementptr inbounds i8, ptr %158, i64 %163
  store ptr %164, ptr %5, align 8
  br label %165

165:                                              ; preds = %157, %154
  %166 = load ptr, ptr %5, align 8
  ret ptr %166
}