; Function Attrs: nofree norecurse nosync nounwind memory(argmem: readwrite) uwtable
define internal ptr @Unroll16ToFloat(ptr nocapture noundef readonly %0, ptr nocapture noundef %1, ptr noundef readonly %2, i32 noundef %3) #4 {
  %5 = load i32, ptr %0, align 8
  %.fr = freeze i32 %5
  %6 = lshr i32 %.fr, 3
  %7 = and i32 %6, 15
  %8 = lshr i32 %.fr, 10
  %9 = and i32 %8, 1
  %10 = lshr i32 %.fr, 14
  %11 = and i32 %10, 1
  %12 = lshr i32 %.fr, 7
  %13 = and i32 %12, 7
  %.not = icmp eq i32 %9, %11
  %spec.select = select i1 %.not, i32 0, i32 %13
  %.not65 = icmp eq i32 %7, 0
  br i1 %.not65, label %._crit_edge, label %.lr.ph

.lr.ph:                                           ; preds = %4
  %14 = and i32 %.fr, 7
  %15 = icmp eq i32 %14, 0
  %..i = select i1 %15, i32 8, i32 %14
  %16 = udiv i32 %3, %..i
  %.not53 = icmp eq i32 %9, 0
  %17 = and i32 %.fr, 4096
  %.not54 = icmp eq i32 %17, 0
  %18 = select i1 %.not54, i32 1, i32 %16
  %19 = and i32 %.fr, 8192
  %.not55 = icmp eq i32 %19, 0
  %wide.trip.count84 = zext nneg i32 %7 to i64
  br i1 %.not53, label %.lr.ph.split.us, label %.lr.ph.split

.lr.ph.split.us:                                  ; preds = %.lr.ph
  br i1 %.not55, label %.lr.ph.split.us.split.us, label %.lr.ph.split.us.split

.lr.ph.split.us.split.us:                         ; preds = %.lr.ph.split.us, %.lr.ph.split.us.split.us
  %indvars.iv81 = phi i64 [ %indvars.iv.next82, %.lr.ph.split.us.split.us ], [ 0, %.lr.ph.split.us ]
  %20 = trunc i64 %indvars.iv81 to i32
  %21 = add i32 %spec.select, %20
  %.pn.in.us.us = mul i32 %21, %18
  %.pn.us.us = zext i32 %.pn.in.us.us to i64
  %.050.in.in.us.us = getelementptr inbounds i16, ptr %2, i64 %.pn.us.us
  %.050.in.us.us = load i16, ptr %.050.in.in.us.us, align 2
  %.050.us.us = uitofp i16 %.050.in.us.us to float
  %22 = fdiv float %.050.us.us, 6.553500e+04
  %23 = getelementptr inbounds float, ptr %1, i64 %indvars.iv81
  store float %22, ptr %23, align 4
  %indvars.iv.next82 = add nuw nsw i64 %indvars.iv81, 1
  %exitcond85.not = icmp eq i64 %indvars.iv.next82, %wide.trip.count84
  br i1 %exitcond85.not, label %._crit_edge, label %.lr.ph.split.us.split.us, !llvm.loop !24

.lr.ph.split.us.split:                            ; preds = %.lr.ph.split.us, %.lr.ph.split.us.split
  %indvars.iv76 = phi i64 [ %indvars.iv.next77, %.lr.ph.split.us.split ], [ 0, %.lr.ph.split.us ]
  %24 = trunc i64 %indvars.iv76 to i32
  %25 = add i32 %spec.select, %24
  %.pn.in.us = mul i32 %25, %18
  %.pn.us = zext i32 %.pn.in.us to i64
  %.050.in.in.us = getelementptr inbounds i16, ptr %2, i64 %.pn.us
  %.050.in.us = load i16, ptr %.050.in.in.us, align 2
  %.050.us = uitofp i16 %.050.in.us to float
  %26 = fdiv float %.050.us, 6.553500e+04
  %27 = fsub float 1.000000e+00, %26
  %28 = getelementptr inbounds float, ptr %1, i64 %indvars.iv76
  store float %27, ptr %28, align 4
  %indvars.iv.next77 = add nuw nsw i64 %indvars.iv76, 1
  %exitcond80.not = icmp eq i64 %indvars.iv.next77, %wide.trip.count84
  br i1 %exitcond80.not, label %._crit_edge, label %.lr.ph.split.us.split, !llvm.loop !24

.lr.ph.split:                                     ; preds = %.lr.ph
  br i1 %.not55, label %.lr.ph.split.split.us, label %.lr.ph.split.split

.lr.ph.split.split.us:                            ; preds = %.lr.ph.split, %.lr.ph.split.split.us
  %indvars.iv71 = phi i64 [ %indvars.iv.next72, %.lr.ph.split.split.us ], [ 0, %.lr.ph.split ]
  %29 = trunc nuw nsw i64 %indvars.iv71 to i32
  %30 = xor i32 %29, -1
  %31 = add nsw i32 %7, %30
  %32 = trunc i64 %indvars.iv71 to i32
  %33 = add i32 %spec.select, %32
  %.pn.in.us58 = mul i32 %33, %18
  %.pn.us59 = zext i32 %.pn.in.us58 to i64
  %.050.in.in.us60 = getelementptr inbounds i16, ptr %2, i64 %.pn.us59
  %.050.in.us61 = load i16, ptr %.050.in.in.us60, align 2
  %.050.us62 = uitofp i16 %.050.in.us61 to float
  %34 = fdiv float %.050.us62, 6.553500e+04
  %35 = zext i32 %31 to i64
  %36 = getelementptr inbounds float, ptr %1, i64 %35
  store float %34, ptr %36, align 4
  %indvars.iv.next72 = add nuw nsw i64 %indvars.iv71, 1
  %exitcond75.not = icmp eq i64 %indvars.iv.next72, %wide.trip.count84
  br i1 %exitcond75.not, label %._crit_edge, label %.lr.ph.split.split.us, !llvm.loop !24

.lr.ph.split.split:                               ; preds = %.lr.ph.split, %.lr.ph.split.split
  %indvars.iv = phi i64 [ %indvars.iv.next, %.lr.ph.split.split ], [ 0, %.lr.ph.split ]
  %37 = trunc nuw nsw i64 %indvars.iv to i32
  %38 = xor i32 %37, -1
  %39 = add nsw i32 %7, %38
  %40 = trunc i64 %indvars.iv to i32
  %41 = add i32 %spec.select, %40
  %.pn.in = mul i32 %41, %18
  %.pn = zext i32 %.pn.in to i64
  %.050.in.in = getelementptr inbounds i16, ptr %2, i64 %.pn
  %.050.in = load i16, ptr %.050.in.in, align 2
  %.050 = uitofp i16 %.050.in to float
  %42 = fdiv float %.050, 6.553500e+04
  %43 = fsub float 1.000000e+00, %42
  %44 = zext i32 %39 to i64
  %45 = getelementptr inbounds float, ptr %1, i64 %44
  store float %43, ptr %45, align 4
  %indvars.iv.next = add nuw nsw i64 %indvars.iv, 1
  %exitcond.not = icmp eq i64 %indvars.iv.next, %wide.trip.count84
  br i1 %exitcond.not, label %._crit_edge, label %.lr.ph.split.split, !llvm.loop !24

._crit_edge:                                      ; preds = %.lr.ph.split.split, %.lr.ph.split.split.us, %.lr.ph.split.us.split, %.lr.ph.split.us.split.us, %4
  %46 = icmp eq i32 %13, 0
  %47 = icmp ne i32 %11, 0
  %or.cond = and i1 %46, %47
  br i1 %or.cond, label %48, label %55

48:                                               ; preds = %._crit_edge
  %49 = load float, ptr %1, align 4
  %50 = getelementptr inbounds i8, ptr %1, i64 4
  %51 = add nsw i32 %7, -1
  %52 = zext i32 %51 to i64
  %53 = shl nuw nsw i64 %52, 2
  tail call void @llvm.memmove.p0.p0.i64(ptr nonnull align 4 %1, ptr nonnull align 4 %50, i64 %53, i1 false)
  %54 = getelementptr inbounds float, ptr %1, i64 %52
  store float %49, ptr %54, align 4
  br label %55

55:                                               ; preds = %48, %._crit_edge
  %56 = load i32, ptr %0, align 8
  %57 = and i32 %56, 4096
  %.not52 = icmp eq i32 %57, 0
  %58 = add nuw nsw i32 %7, %13
  %59 = shl nuw nsw i32 %58, 1
  %narrow = select i1 %.not52, i32 %59, i32 2
  %.0.v = zext nneg i32 %narrow to i64
  %.0 = getelementptr inbounds i8, ptr %2, i64 %.0.v
  ret ptr %.0
}